; Function Attrs: mustprogress uwtable
define void @_ZN8QuantLib15SvenssonFittingC2ERKNS_5ArrayES3_ddNS_10ConstraintE(ptr noundef nonnull align 8 dereferenceable(176) %this, ptr noundef nonnull align 8 dereferenceable(16) %weights, ptr nocapture noundef nonnull readonly align 8 dereferenceable(16) %l2, double noundef %minCutoffTime, double noundef %maxCutoffTime, ptr nocapture noundef %constraint) unnamed_addr #3 align 2 personality ptr @__gxx_personality_v0 {
entry:
  %ref.tmp = alloca %"class.boost::shared_ptr.50", align 8
  %agg.tmp = alloca %"class.QuantLib::Constraint", align 8
  call void @llvm.lifetime.start.p0(i64 16, ptr nonnull %ref.tmp) #22
  call void @llvm.memset.p0.i64(ptr noundef nonnull align 8 dereferenceable(16) %ref.tmp, i8 0, i64 16, i1 false)
  %0 = load ptr, ptr %constraint, align 8, !tbaa !29
  store ptr %0, ptr %agg.tmp, align 8, !tbaa !29
  %pn.i.i = getelementptr inbounds nuw i8, ptr %agg.tmp, i64 8
  %pn3.i.i = getelementptr inbounds nuw i8, ptr %constraint, i64 8
  %1 = load ptr, ptr %pn3.i.i, align 8, !tbaa !16
  store ptr %1, ptr %pn.i.i, align 8, !tbaa !16
  tail call void @llvm.memset.p0.i64(ptr noundef nonnull align 8 dereferenceable(16) %constraint, i8 0, i64 16, i1 false)
  invoke void @_ZN8QuantLib15SvenssonFittingC2ERKNS_5ArrayERKN5boost10shared_ptrINS_18OptimizationMethodEEES3_ddNS_10ConstraintE(ptr noundef nonnull align 8 dereferenceable(176) %this, ptr noundef nonnull align 8 dereferenceable(16) %weights, ptr noundef nonnull align 8 dereferenceable(16) %ref.tmp, ptr noundef nonnull align 8 dereferenceable(16) %l2, double noundef %minCutoffTime, double noundef %maxCutoffTime, ptr noundef nonnull %agg.tmp)
          to label %invoke.cont unwind label %lpad

invoke.cont:                                      ; preds = %entry
  %2 = load ptr, ptr %pn.i.i, align 8, !tbaa !16
  %cmp.not.i.i.i = icmp eq ptr %2, null
  br i1 %cmp.not.i.i.i, label %_ZN8QuantLib10ConstraintD2Ev.exit, label %if.then.i.i.i

if.then.i.i.i:                                    ; preds = %invoke.cont
  %use_count_.i.i.i.i = getelementptr inbounds nuw i8, ptr %2, i64 8
  %3 = atomicrmw sub ptr %use_count_.i.i.i.i, i32 1 acq_rel, align 4
  %cmp.i.i.i.i = icmp eq i32 %3, 1
  br i1 %cmp.i.i.i.i, label %if.then.i.i.i.i, label %_ZN8QuantLib10ConstraintD2Ev.exit

if.then.i.i.i.i:                                  ; preds = %if.then.i.i.i
  %vtable.i.i.i.i = load ptr, ptr %2, align 8, !tbaa !14
  %vfn.i.i.i.i = getelementptr inbounds i8, ptr %vtable.i.i.i.i, i64 16
  %4 = load ptr, ptr %vfn.i.i.i.i, align 8
  invoke void %4(ptr noundef nonnull align 8 dereferenceable(16) %2)
          to label %.noexc.i.i.i unwind label %terminate.lpad.i.i.i

.noexc.i.i.i:                                     ; preds = %if.then.i.i.i.i
  %weak_count_.i.i.i.i.i = getelementptr inbounds nuw i8, ptr %2, i64 12
  %5 = atomicrmw sub ptr %weak_count_.i.i.i.i.i, i32 1 acq_rel, align 4
  %cmp.i.i.i.i.i = icmp eq i32 %5, 1
  br i1 %cmp.i.i.i.i.i, label %if.then.i.i.i.i.i, label %_ZN8QuantLib10ConstraintD2Ev.exit

if.then.i.i.i.i.i:                                ; preds = %.noexc.i.i.i
  %vtable.i.i.i.i.i = load ptr, ptr %2, align 8, !tbaa !14
  %vfn.i.i.i.i.i = getelementptr inbounds i8, ptr %vtable.i.i.i.i.i, i64 24
  %6 = load ptr, ptr %vfn.i.i.i.i.i, align 8
  invoke void %6(ptr noundef nonnull align 8 dereferenceable(16) %2)
          to label %_ZN8QuantLib10ConstraintD2Ev.exit unwind label %terminate.lpad.i.i.i

terminate.lpad.i.i.i:                             ; preds = %if.then.i.i.i.i.i, %if.then.i.i.i.i
  %7 = landingpad { ptr, i32 }
          catch ptr null
  %8 = extractvalue { ptr, i32 } %7, 0
  tail call void @__clang_call_terminate(ptr %8) #23
  unreachable

_ZN8QuantLib10ConstraintD2Ev.exit:                ; preds = %invoke.cont, %if.then.i.i.i, %.noexc.i.i.i, %if.then.i.i.i.i.i
  %pn.i = getelementptr inbounds nuw i8, ptr %ref.tmp, i64 8
  %9 = load ptr, ptr %pn.i, align 8, !tbaa !16
  %cmp.not.i.i = icmp eq ptr %9, null
  br i1 %cmp.not.i.i, label %_ZN5boost10shared_ptrIN8QuantLib18OptimizationMethodEED2Ev.exit, label %if.then.i.i

if.then.i.i:                                      ; preds = %_ZN8QuantLib10ConstraintD2Ev.exit
  %use_count_.i.i.i = getelementptr inbounds nuw i8, ptr %9, i64 8
  %10 = atomicrmw sub ptr %use_count_.i.i.i, i32 1 acq_rel, align 4
  %cmp.i.i.i = icmp eq i32 %10, 1
  br i1 %cmp.i.i.i, label %if.then.i.i.i2, label %_ZN5boost10shared_ptrIN8QuantLib18OptimizationMethodEED2Ev.exit

if.then.i.i.i2:                                   ; preds = %if.then.i.i
  %vtable.i.i.i = load ptr, ptr %9, align 8, !tbaa !14
  %vfn.i.i.i = getelementptr inbounds i8, ptr %vtable.i.i.i, i64 16
  %11 = load ptr, ptr %vfn.i.i.i, align 8
  invoke void %11(ptr noundef nonnull align 8 dereferenceable(16) %9)
          to label %.noexc.i.i unwind label %terminate.lpad.i.i

.noexc.i.i:                                       ; preds = %if.then.i.i.i2
  %weak_count_.i.i.i.i = getelementptr inbounds nuw i8, ptr %9, i64 12
  %12 = atomicrmw sub ptr %weak_count_.i.i.i.i, i32 1 acq_rel, align 4
  %cmp.i.i.i.i3 = icmp eq i32 %12, 1
  br i1 %cmp.i.i.i.i3, label %if.then.i.i.i.i4, label %_ZN5boost10shared_ptrIN8QuantLib18OptimizationMethodEED2Ev.exit

if.then.i.i.i.i4:                                 ; preds = %.noexc.i.i
  %vtable.i.i.i.i5 = load ptr, ptr %9, align 8, !tbaa !14
  %vfn.i.i.i.i6 = getelementptr inbounds i8, ptr %vtable.i.i.i.i5, i64 24
  %13 = load ptr, ptr %vfn.i.i.i.i6, align 8
  invoke void %13(ptr noundef nonnull align 8 dereferenceable(16) %9)
          to label %_ZN5boost10shared_ptrIN8QuantLib18OptimizationMethodEED2Ev.exit unwind label %terminate.lpad.i.i

terminate.lpad.i.i:                               ; preds = %if.then.i.i.i.i4, %if.then.i.i.i2
  %14 = landingpad { ptr, i32 }
          catch ptr null
  %15 = extractvalue { ptr, i32 } %14, 0
  tail call void @__clang_call_terminate(ptr %15) #23
  unreachable

_ZN5boost10shared_ptrIN8QuantLib18OptimizationMethodEED2Ev.exit: ; preds = %_ZN8QuantLib10ConstraintD2Ev.exit, %if.then.i.i, %.noexc.i.i, %if.then.i.i.i.i4
  call void @llvm.lifetime.end.p0(i64 16, ptr nonnull %ref.tmp) #22
  ret void

lpad:                                             ; preds = %entry
  %16 = landingpad { ptr, i32 }
          cleanup
  call void @_ZN8QuantLib10ConstraintD2Ev(ptr noundef nonnull align 8 dereferenceable(16) %agg.tmp) #22
  call void @_ZN5boost10shared_ptrIN8QuantLib18OptimizationMethodEED2Ev(ptr noundef nonnull align 8 dereferenceable(16) %ref.tmp) #22
  call void @llvm.lifetime.end.p0(i64 16, ptr nonnull %ref.tmp) #22
  resume { ptr, i32 } %16
}